((lp0
I52659
aI23900
aF2.203305439330544
(lp1
(lp2
(lp3
I0
aI0
aI0
aI0
aI0
aI1
aI0
aI1
aI0
aI47
aI1
aI0
aI0
aI0
aI7
aI0
aI0
aI0
aI0
aI0
aI0
aI0
aI0
aI11
aI0
aI0
aI0
aI0
aI0
aI0
aI0
aI0
aI0
aI0
aI0
aI0
aI0
aI0
aI0
aI1
aI0
aI0
aI1
aI0
aI0
aI0
aI0
aI0
aI0
aI0
aI0
aI0
aI0
aI0
aI0
aI0
aI0
aI0
aI9
aI0
aI0
aI0
aI0
aI0
aI0
aI0
aI0
aI0
aI0
aI17
aI1
aI0
aI0
aI0
aI82
aI0
aI0
aI0
aI1
aI0
aI0
aI0
aI1
aI0
aI0
aI0
aI0
aI0
aI0
aI0
aI0
aI0
aI0
aI13
aI0
aI0
aI0
aI0
aI0
aI0
aI0
aI0
aI0
aI11
aI0
aI0
aI0
aI0
aI3
aI0
aI0
aI0
aI0
aI0
aI0
aI0
aI9
aI0
aI0
aI1
aI0
aI0
aI0
aI0
aI15
aI0
aI0
aI0
aI0
aI0
aI0
aI0
aI0
aI0
aI0
aI31
aI0
aI6
aI0
aI1
aI0
aI0
aI0
aI0
aI0
aI0
aI0
aI0
aI0
aI0
aI0
aI39
aI0
aI0
aI2
aI0
aI0
aI0
aI1
aI0
aI0
aI0
aI0
aI0
aI1
aI0
aI0
aI16
aI2
aI0
aI0
aI0
aI0
aI3
aI0
aI0
aI0
aI0
aI17
aI11
aI0
aI0
aI0
aI0
aI0
aI0
aI0
aI4
aI9
aI0
aI3
aI14
aI0
aI0
aI0
aI0
aI0
aI0
aI4
aa(lp4
I0
aI0
aI0
aI0
aI9
aI10
aI0
aI1
aI0
aI520
aI14
aI6
aI0
aI0
aI9
aI1
aI0
aI17
aI0
aI0
aI0
aI0
aI1
aI20
aI0
aI1
aI0
aI9
aI325
aI330
aI0
aI0
aI1
aI0
aI1
aI0
aI0
aI0
aI0
aI2
aI7
aI0
aI9
aI3
aI0
aI0
aI0
aI0
aI0
aI2
aI0
aI0
aI18
aI3
aI0
aI4
aI0
aI0
aI30
aI0
aI0
aI4
aI0
aI0
aI0
aI0
aI0
aI0
aI0
aI41
aI173
aI0
aI0
aI0
aI192
aI0
aI5
aI7
aI90
aI0
aI5
aI0
aI8
aI0
aI0
aI2
aI0
aI0
aI0
aI0
aI0
aI0
aI4
aI86
aI0
aI0
aI6
aI14
aI0
aI5
aI0
aI0
aI12
aI39
aI0
aI0
aI5
aI2
aI16
aI0
aI2
aI0
aI0
aI0
aI1
aI0
aI126
aI0
aI0
aI9
aI1
aI0
aI2
aI0
aI31
aI1
aI19
aI0
aI0
aI0
aI87
aI1
aI0
aI1
aI6
aI524
aI0
aI861
aI3
aI120
aI0
aI4
aI1
aI40
aI3
aI3
aI4
aI0
aI0
aI0
aI0
aI254
aI0
aI0
aI3
aI0
aI0
aI3
aI11
aI10
aI3
aI0
aI4
aI0
aI5
aI3
aI2
aI151
aI298
aI0
aI7
aI16
aI0
aI136
aI1
aI0
aI1
aI0
aI157
aI124
aI38
aI0
aI0
aI9
aI0
aI0
aI31
aI239
aI52
aI0
aI23
aI74
aI3
aI16
aI0
aI5
aI13
aI24
aI5
aa(lp5
I1
aI6
aI0
aI2
aI64
aI545
aI0
aI16
aI0
aI2218
aI54
aI194
aI13
aI0
aI51
aI5
aI6
aI128
aI3
aI0
aI0
aI0
aI6
aI61
aI0
aI90
aI3
aI105
aI688
aI765
aI1
aI3
aI6
aI1
aI37
aI6
aI0
aI2
aI0
aI25
aI26
aI9
aI21
aI28
aI13
aI1
aI1
aI0
aI2
aI22
aI3
aI2
aI24
aI6
aI0
aI36
aI20
aI28
aI496
aI0
aI4
aI18
aI7
aI0
aI5
aI62
aI6
aI8
aI0
aI162
aI629
aI3
aI0
aI5
aI558
aI16
aI101
aI133
aI404
aI53
aI22
aI96
aI46
aI0
aI0
aI94
aI12
aI2
aI5
aI3
aI0
aI1
aI14
aI343
aI0
aI0
aI156
aI45
aI2
aI9
aI1
aI0
aI15
aI766
aI0
aI13
aI55
aI40
aI59
aI67
aI6
aI0
aI4
aI0
aI8
aI0
aI1803
aI10
aI0
aI39
aI58
aI14
aI17
aI29
aI248
aI18
aI55
aI9
aI113
aI0
aI339
aI384
aI2
aI52
aI90
aI740
aI0
aI6867
aI12
aI1264
aI12
aI97
aI35
aI903
aI19
aI19
aI15
aI50
aI0
aI4
aI0
aI2213
aI0
aI28
aI5
aI0
aI1
aI6
aI127
aI123
aI16
aI1
aI78
aI6
aI8
aI29
aI181
aI453
aI2826
aI0
aI31
aI910
aI22
aI560
aI93
aI12
aI6
aI2
aI773
aI513
aI290
aI59
aI0
aI60
aI0
aI2
aI367
aI727
aI235
aI254
aI267
aI452
aI15
aI246
aI0
aI265
aI15
aI88
aI28
aa(lp6
I4
aI87
aI18
aI8
aI321
aI586
aI0
aI428
aI0
aI5301
aI408
aI1478
aI57
aI109
aI202
aI576
aI16
aI1007
aI27
aI0
aI12
aI16
aI46
aI114
aI0
aI564
aI12
aI749
aI1628
aI1587
aI7
aI47
aI100
aI27
aI627
aI511
aI1
aI68
aI19
aI339
aI41
aI55
aI97
aI160
aI47
aI7
aI10
aI0
aI39
aI168
aI13
aI41
aI678
aI19
aI27
aI560
aI565
aI665
aI3449
aI225
aI113
aI98
aI12
aI3
aI84
aI383
aI55
aI854
aI0
aI1039
aI1665
aI182
aI0
aI26
aI1668
aI121
aI1035
aI562
aI2230
aI274
aI167
aI1026
aI423
aI8
aI38
aI336
aI67
aI56
aI234
aI65
aI29
aI6
aI268
aI1351
aI3
aI2
aI442
aI386
aI44
aI347
aI34
aI0
aI429
aI3468
aI7
aI33
aI95
aI95
aI294
aI497
aI105
aI2
aI62
aI0
aI62
aI0
aI5310
aI28
aI5
aI241
aI362
aI173
aI125
aI233
aI526
aI85
aI187
aI32
aI488
aI14
aI1198
aI899
aI27
aI843
aI1069
aI1912
aI0
aI9507
aI20
aI4473
aI148
aI342
aI134
aI2210
aI111
aI405
aI485
aI243
aI0
aI20
aI8
aI8390
aI3
aI88
aI40
aI0
aI68
aI127
aI309
aI859
aI89
aI153
aI123
aI131
aI548
aI97
aI1271
aI1826
aI8581
aI43
aI196
aI2252
aI290
aI942
aI152
aI70
aI140
aI50
aI2777
aI2724
aI1583
aI403
aI21
aI314
aI4
aI2
aI1895
aI2103
aI812
aI715
aI806
aI1187
aI100
aI2714
aI0
aI1160
aI248
aI222
aI181
aaa(lp7
(lp8
I0
aI0
aI0
aI0
aI0
aI0
aI0
aI0
aI0
aI43
aI1
aI0
aI0
aI0
aI0
aI0
aI0
aI0
aI0
aI0
aI0
aI0
aI0
aI29
aI0
aI0
aI0
aI0
aI0
aI0
aI0
aI0
aI0
aI0
aI0
aI0
aI0
aI0
aI0
aI0
aI0
aI0
aI0
aI0
aI0
aI0
aI0
aI0
aI0
aI0
aI0
aI0
aI0
aI0
aI0
aI0
aI0
aI0
aI2
aI0
aI0
aI0
aI0
aI0
aI0
aI0
aI0
aI0
aI0
aI3
aI0
aI0
aI0
aI0
aI33
aI0
aI0
aI0
aI1
aI0
aI0
aI0
aI0
aI0
aI0
aI0
aI0
aI0
aI0
aI0
aI0
aI0
aI0
aI4
aI0
aI0
aI0
aI0
aI0
aI0
aI0
aI0
aI0
aI0
aI0
aI0
aI0
aI0
aI0
aI0
aI0
aI0
aI0
aI0
aI0
aI0
aI2
aI0
aI0
aI0
aI0
aI0
aI0
aI0
aI18
aI0
aI0
aI0
aI0
aI0
aI0
aI0
aI0
aI0
aI0
aI7
aI0
aI0
aI0
aI0
aI0
aI0
aI1
aI0
aI0
aI0
aI0
aI0
aI0
aI0
aI0
aI8
aI0
aI0
aI2
aI0
aI0
aI1
aI0
aI0
aI0
aI0
aI0
aI0
aI2
aI0
aI0
aI3
aI0
aI0
aI0
aI0
aI0
aI1
aI0
aI0
aI0
aI0
aI6
aI1
aI0
aI0
aI0
aI0
aI0
aI0
aI0
aI3
aI0
aI0
aI0
aI25
aI1
aI0
aI0
aI0
aI2
aI0
aI0
aa(lp9
I0
aI0
aI0
aI0
aI4
aI0
aI0
aI0
aI0
aI382
aI11
aI3
aI0
aI0
aI0
aI0
aI0
aI13
aI0
aI0
aI0
aI0
aI0
aI36
aI0
aI0
aI0
aI3
aI17
aI45
aI0
aI0
aI0
aI0
aI0
aI0
aI0
aI0
aI0
aI0
aI0
aI0
aI2
aI0
aI1
aI0
aI0
aI0
aI0
aI2
aI0
aI1
aI2
aI0
aI0
aI12
aI0
aI0
aI14
aI0
aI0
aI0
aI0
aI0
aI1
aI0
aI0
aI0
aI0
aI4
aI47
aI0
aI0
aI0
aI51
aI0
aI4
aI1
aI16
aI0
aI0
aI0
aI0
aI0
aI0
aI0
aI0
aI0
aI1
aI0
aI0
aI0
aI0
aI21
aI0
aI0
aI0
aI4
aI2
aI2
aI0
aI0
aI0
aI23
aI0
aI2
aI1
aI3
aI0
aI0
aI0
aI0
aI0
aI0
aI0
aI0
aI87
aI0
aI0
aI1
aI0
aI0
aI1
aI0
aI153
aI0
aI4
aI0
aI0
aI0
aI3
aI0
aI0
aI0
aI0
aI60
aI0
aI303
aI0
aI53
aI0
aI1
aI1
aI2
aI1
aI0
aI1
aI5
aI0
aI0
aI0
aI106
aI0
aI0
aI2
aI0
aI0
aI1
aI28
aI7
aI1
aI0
aI0
aI0
aI8
aI0
aI2
aI39
aI85
aI0
aI5
aI2
aI0
aI35
aI0
aI0
aI0
aI0
aI53
aI86
aI12
aI0
aI0
aI2
aI0
aI0
aI19
aI193
aI7
aI0
aI2
aI47
aI2
aI5
aI0
aI1
aI8
aI3
aI0
aa(lp10
I0
aI29
aI0
aI0
aI11
aI45
aI0
aI0
aI0
aI1260
aI37
aI48
aI0
aI0
aI27
aI6
aI0
aI104
aI0
aI0
aI2
aI0
aI2
aI68
aI0
aI39
aI0
aI70
aI78
aI82
aI0
aI9
aI0
aI0
aI7
aI2
aI0
aI0
aI0
aI14
aI1
aI0
aI4
aI0
aI4
aI0
aI1
aI0
aI2
aI8
aI0
aI4
aI4
aI1
aI1
aI20
aI12
aI10
aI210
aI0
aI3
aI3
aI0
aI0
aI3
aI18
aI0
aI1
aI0
aI15
aI138
aI4
aI0
aI1
aI136
aI0
aI36
aI16
aI58
aI47
aI4
aI23
aI2
aI0
aI0
aI40
aI2
aI0
aI3
aI3
aI0
aI0
aI1
aI129
aI0
aI0
aI77
aI11
aI2
aI3
aI2
aI0
aI1
aI257
aI0
aI9
aI8
aI14
aI18
aI20
aI1
aI1
aI3
aI0
aI8
aI0
aI949
aI0
aI0
aI20
aI30
aI0
aI4
aI5
aI403
aI0
aI13
aI0
aI49
aI4
aI50
aI64
aI2
aI3
aI74
aI78
aI0
aI1883
aI0
aI546
aI0
aI76
aI25
aI180
aI16
aI4
aI2
aI86
aI0
aI0
aI0
aI721
aI0
aI17
aI2
aI0
aI1
aI1
aI165
aI17
aI6
aI0
aI39
aI2
aI15
aI0
aI30
aI126
aI860
aI2
aI22
aI173
aI5
aI230
aI0
aI4
aI1
aI2
aI335
aI407
aI113
aI71
aI0
aI7
aI0
aI0
aI84
aI557
aI84
aI112
aI333
aI297
aI21
aI65
aI0
aI119
aI8
aI13
aI6
aa(lp11
I0
aI103
aI9
aI1
aI83
aI47
aI1
aI35
aI0
aI2463
aI331
aI435
aI8
aI79
aI94
aI93
aI1
aI637
aI6
aI0
aI9
aI10
aI33
aI234
aI0
aI213
aI8
aI388
aI337
aI217
aI2
aI115
aI22
aI11
aI242
aI98
aI0
aI11
aI4
aI185
aI6
aI7
aI43
aI36
aI23
aI0
aI9
aI0
aI105
aI38
aI7
aI23
aI82
aI6
aI12
aI146
aI123
aI160
aI931
aI16
aI28
aI33
aI3
aI4
aI14
aI163
aI9
aI144
aI0
aI249
aI346
aI65
aI0
aI7
aI350
aI169
aI244
aI49
aI421
aI194
aI55
aI210
aI53
aI3
aI4
aI173
aI35
aI8
aI82
aI35
aI13
aI0
aI57
aI725
aI1
aI0
aI251
aI111
aI55
aI56
aI10
aI0
aI38
aI1278
aI4
aI21
aI21
aI35
aI70
aI147
aI29
aI2
aI31
aI0
aI65
aI0
aI2047
aI1
aI7
aI70
aI148
aI40
aI117
aI150
aI988
aI13
aI112
aI8
aI228
aI24
aI304
aI172
aI10
aI236
aI412
aI305
aI0
aI3332
aI0
aI1595
aI47
aI303
aI91
aI620
aI82
aI211
aI48
aI243
aI0
aI3
aI2
aI2591
aI0
aI98
aI11
aI0
aI16
aI45
aI260
aI166
aI58
aI33
aI63
aI31
aI119
aI65
aI241
aI602
aI2664
aI18
aI109
aI525
aI80
aI513
aI1
aI16
aI37
aI15
aI1436
aI1357
aI426
aI205
aI13
aI131
aI1
aI0
aI479
aI1514
aI389
aI359
aI995
aI755
aI218
aI847
aI0
aI580
aI17
aI49
aI79
aaa(lp12
(lp13
I2
aI1
aI2
aI2
aI-12
aI4
aI-4
aI5
aa(lp14
I-4
aI5
aI-3
aI5
aI-4
aI5
aI-3
aI5
aI-3
aI5
aI-4
aI6
aI-4
aI6
aI-4
aI5
aI-3
aI5
aI-3
aI4
aI-3
aI5
aI-3
aI5
aa(lp15
I1
aI2
aI-2
aI-1
aI1
aI-4
aI-13
aa(lp16
I-4
aI-3
aI-4
aI9
aI-3
aI-4
aI4
aI5
aa(lp17
I-5
aI8
aI-1
aI-2
aI-1
aa(lp18
I3
aI3
aI3
aI3
aI3
aI3
aI3
aI3
aa(lp19
I4
aI1
aI2
aI-10
aI7
aI1
aI2
aI-14
aI11
aI1
aI2
aa(lp20
I-2
aI-2
aI-1
aI-2
aI-5
aI-2
aI-2
aI-1
aI-2
aa(lp21
I12
aI-3
aI1
aI2
aI-2
aI2
aI-12
aI5
aa(lp22
I2
aI-3
aI1
aa(lp23
I2
aI1
aI-3
aI-7
aa(lp24
I-2
aI0
aI2
aI-4
aI-1
aI-2
aa(lp25
I-1
aI10
aI-2
aI-5
aI-2
aI9
aI-2
aa(lp26
I1
aI-1
aI5
aI-1
aI4
aI-1
aI5
aI-1
aI6
aI-1
aI4
aI-1
aI5
aa(lp27
I8
aI-5
aI9
aI-4
aI7
aI-3
aa(lp28
I2
aI2
aI1
aI2
aI2
aI-2
aI2
aI2
aI-2
aI2
aa(lp29
I-5
aI-3
aI-4
aI-2
aI14
aI-3
aI-4
aI-5
aa(lp30
I1
aI-6
aI1
aI-2
aa(lp31
I-9
aI-1
aI3
aI2
aI-9
aI4
aa(lp32
I-3
aI-4
aI4
aI-8
aI5
aI-8
aI9
aI-1
aa(lp33
I5
aI3
aI-3
aI-5
aI1
aI4
aI2
aI3
aI-3
aI-2
aI-1
aa(lp34
I-8
aI-2
aI2
aI10
aI-8
aI-1
aI1
aa(lp35
I1
aI8
aI-8
aI2
aI-3
aa(lp36
I12
aI-1
aI1
aI-12
aI12
aa(lp37
I-5
aI-3
aI3
aI-7
aI5
aI-1
aI-2
aI2
aI8
aI-10
aI9
aI1
aa(lp38
I-4
aI0
aI-3
aI0
aI-3
aI0
aI-4
aI0
aI-3
aI0
aI-4
aa(lp39
I-7
aI1
aI-4
aI1
aI9
aa(lp40
I-3
aI2
aI-7
aI1
aa(lp41
I-1
aI-3
aI-1
aI-2
aI-2
aI-2
aI-1
aa(lp42
I1
aI2
aI2
aI2
aI1
aI3
aI1
aa(lp43
I12
aI-2
aI2
aI-4
aI2
aI2
aI-4
aI-3
aa(lp44
I2
aI-2
aI-5
aI7
aI1
aI-1
aI-7
aI8
aI2
aI-2
aI-8
aa(lp45
I-5
aI-4
aI-3
aI-5
aI7
aI1
aa(lp46
I-2
aI-2
aI-1
aI4
aI-2
aI3
aI-1
aI-4
aI2
aI-3
aI1
aa(lp47
I5
aI-7
aI6
aI-4
aI5
aI-4
aI6
aI-7
aI5
aI-7
aI6
aa(lp48
I-1
aI1
aI2
aI2
aI-4
aI-1
aI-1
aI0
aI1
aI0
aI1
aI2
aa(lp49
I-8
aI1
aI-7
aI-2
aI9
aI-10
aI8
aa(lp50
I-1
aI1
aI2
aI1
aI-1
aI-2
aI-2
aI-2
aI-1
aI-2
aI3
aI-1
aI-2
aI-2
aI-1
aI1
aI-3
aa(lp51
I-4
aI-3
aI-5
aI-4
aI-3
aI15
aI-1
aa(lp52
I-4
aI7
aI-3
aI8
aI-5
aI5
aa(lp53
I-3
aI-1
aI7
aI-2
aI-1
aI7
aI-2
aI-1
aa(lp54
I8
aI-12
aI1
aI9
aI-12
aI2
aI8
aI-12
aa(lp55
I-2
aI-2
aI-1
aI-2
aI-2
aI-1
aI8
aa(lp56
I2
aI2
aI1
aI2
aI2
aI1
aI2
aI2
aI-4
aI-3
aa(lp57
I7
aI-7
aI-1
aI1
aI8
aI-8
aI-1
aI1
aa(lp58
I10
aI-2
aI-1
aI1
aI-9
aI-2
aa(lp59
I-3
aI12
aI2
aI1
aI2
aI-2
aI-1
aI-2
aI-1
aa(lp60
I-7
aI-1
aI1
aI12
aI-3
aI-2
aI5
aI-7
aI-1
aa(lp61
I1
aI2
aI-12
aI10
aI-1
aI-2
aa(lp62
I5
aI2
aI-9
aI-1
aa(lp63
I2
aI1
aI-3
aI-2
aI-1
aI5
aI1
aI2
aI-3
aI-2
aI-2
aI2
aI2
aI1
aI-3
aI-2
aI-1
aI1
aa(lp64
I-9
aI7
aI-2
aI-5
aI4
aa(lp65
I-2
aI-2
aI-1
aI-2
aI-2
aI2
aI-2
aI-1
aI-2
aI-2
aI-1
aa(lp66
I-1
aI-2
aI-2
aI-2
aI-1
aI13
aI-1
aI-2
aI-2
aI-1
aI-2
aa(lp67
I-5
aI-4
aI-3
aI2
aI9
aI1
aa(lp68
I1
aI-2
aI-2
aI-1
aI-1
aI3
aI1
aI-2
aI-1
aI-2
aI-1
aa(lp69
I1
aI-1
aI-2
aI-2
aI-1
aI4
aI1
aI-2
aI-2
aI-1
aI-2
aa(lp70
I1
aI-2
aI-2
aI-1
aI-1
aI3
aI1
aI-1
aI-2
aI-1
aI1
aa(lp71
I1
aI2
aI-2
aI-1
aI1
aI-1
aa(lp72
I2
aI1
aI-1
aI2
aI1
aI-2
aI2
aI2
aI-2
aI2
aI1
aI-1
aI-2
aI-2
aI-1
aI-2
aI2
aa(lp73
I-3
aI-4
aI7
aI1
aI2
aI-2
aI-1
aI-2
aa(lp74
I-3
aI-3
aI6
aI-2
aI-1
aI1
aI-1
aI-2
aa(lp75
I12
aI-5
aI-3
aI-4
aI4
aI1
aa(lp76
I-7
aI-1
aI1
aI9
aI-9
aI0
aI-1
aI1
aI5
aa(lp77
I-4
aI10
aI-12
aI5
aa(lp78
I4
aI-7
aI3
aI-6
aI3
aI-7
aI7
aa(lp79
I-4
aI4
aI3
aI5
aI-5
aI5
aI4
aa(lp80
I-2
aI2
aI1
aI-1
aI1
aI4
aI-2
aI-2
aa(lp81
I2
aI1
aI-1
aI1
aI2
aI-8
aI1
aI2
aI-7
aI9
aI-4
aI-3
aI8
aI-3
aI-2
aa(lp82
I-5
aI-3
aI-4
aI-5
aa(lp83
I4
aI3
aI5
aI3
aa(lp84
I-3
aI0
aI-4
aI0
aI-5
aI0
aI5
aa(lp85
I12
aI-10
aI9
aI-7
aI9
aI-15
aI9
aI-7
aI8
aI7
aI9
aa(lp86
I-4
aI-2
aI6
aI-5
aI-3
aI8
aI-7
aa(lp87
I4
aI3
aI5
aI4
aa(lp88
I-5
aI9
aI-4
aI0
aI-5
aI9
aI-4
aI0
aa(lp89
I-2
aI-1
aI-2
aI-1
aI1
aI2
aI1
aI-3
aa(lp90
I-2
aI3
aI3
aI1
aI2
aI3
aI3
aa(lp91
I-2
aI-2
aI-2
aI-1
aI-2
aI-1
aI1
aa(lp92
I-1
aI5
aI-1
aI4
aI-1
aI3
aI-2
aI4
aI-2
aI3
aI-1
aa(lp93
I-1
aI-2
aI8
aI-8
aa(lp94
I-4
aI-1
aI-2
aI-2
aI-1
aI1
aI2
aI0
aa(lp95
I-3
aI-4
aI-5
aI-3
aI-4
aI-5
aa(lp96
I-1
aI-2
aI-2
aI2
aI-2
aI-1
aI1
aI-5
aI-3
aI-4
aI5
aI-3
aa(lp97
I-2
aI-2
aI7
aI-3
aI-4
aI1
aI1
aI5
aa(lp98
I-8
aI1
aI5
aI-8
aI1
aI5
aI-8
aI1
aa(lp99
I4
aI1
aI-7
aI9
aI-2
aa(lp100
I1
aI-1
aI-2
aI-1
aI1
aI-7
aI-2
aI-1
aI-2
aa(lp101
I5
aI-2
aI-2
aI-1
aI-2
aI2
aI-2
aI-1
aI1
aa(lp102
I-2
aI-1
aI3
aI1
aI-1
aI-2
aI2
aI-7
aa(lp103
I-1
aI-2
aI-2
aI-2
aI-1
aI-2
aI2
aI-4
aI4
aI3
aI5
aa(lp104
I12
aI4
aI-21
aI12
aI4
aa(lp105
I1
aI2
aI-3
aI-2
aI-2
aI2
aI2
aI1
aI-3
aI-2
aI-1
aa(lp106
I-8
aI1
aI2
aa(lp107
I2
aI-4
aI6
aI1
aI-5
aI12
aI2
aI-4
aI6
aa(lp108
I-8
aI-4
aI2
aI-2
aI-1
aI1
aI-8
aI-4
aI2
aI-2
aI-1
aI1
aa(lp109
I-8
aI1
aI5
aI-8
aI1
aa(lp110
I2
aI2
aI1
aI-6
aI-2
aa(lp111
I-1
aI8
aI1
aI-6
aI-2
aa(lp112
I-2
aI-1
aI-2
aI-2
aI4
aI-2
aI-2
aI-1
aI-2
aI-2
aI-2
aa(lp113
I12
aI-1
aI-2
aI-2
aI5
aI-5
aa(lp114
I-1
aI-7
aI-2
aI7
aI-2
aI-8
aI-2
aI10
aI-1
aI-2
aI-2
aI-2
aI-1
aI-2
aI2
aa(lp115
I1
aI1
aI1
aI1
aI1
aI2
aI1
aI2
aI-2
aI-1
aI-2
aI-2
aI-2
aI-1
aI-2
aI-2
aa(lp116
I-4
aI-1
aI1
aI2
aa(lp117
I-2
aI-2
aI-1
aI2
aI-5
aI12
aI-2
aI-1
aI-2
aI-2
aI-1
aI1
aa(lp118
I-4
aI-5
aI5
aI5
aI-8
aI2
aI3
aa(lp119
I-4
aI-5
aI10
aI-3
aI-7
aa(lp120
I-4
aI7
aI-2
aI-3
aI8
aa(lp121
I-4
aI-5
aI5
aI-5
aI-3
aa(lp122
I-4
aI4
aI4
aI1
aI-5
aa(lp123
I7
aI-4
aI-3
aI-1
aI1
aI2
aI1
aa(lp124
I2
aI9
aI1
aI-8
aI1
aI9
aI2
aa(lp125
I2
aI9
aI1
aI-5
aI1
aa(lp126
I2
aI-6
aI-1
aI5
aI-7
aI6
aI1
aI-4
aI1
aI7
aI1
aa(lp127
I12
aI-2
aI-2
aI-1
aI-2
aI-1
aI1
aa(lp128
I12
aI-2
aI-2
aI-1
aI-2
aI-1
aI1
aI2
aI1
aI2
aI2
aI2
aI1
aI-5
aI-3
aI-4
aI12
aa(lp129
I-3
aI1
aI-1
aI1
aa(lp130
I-5
aI5
aI4
aI3
aI-7
aI4
aI3
aI5
aI-8
aI3
aI5
aa(lp131
I-4
aI-5
aI-3
aI-4
aI-5
aI-3
aI3
aI-7
aa(lp132
I-1
aI1
aI9
aI-2
aa(lp133
I-4
aI2
aI3
aI-8
aI2
aI1
aa(lp134
I-2
aI-7
aI-2
aI-1
aI-2
aa(lp135
I9
aI2
aI2
aI2
aI1
aa(lp136
I-5
aI-3
aI1
aI2
aI-7
aa(lp137
I10
aI-3
aI3
aI-10
aI10
aa(lp138
I1
aI2
aI-9
aI-2
aI-1
aa(lp139
I1
aI1
aI2
aI1
aI-12
aa(lp140
I-3
aI12
aI-12
aI9
aI-9
aa(lp141
I-9
aI11
aI-8
aI10
aI-8
aI7
aa(lp142
I2
aI2
aI-4
aI2
aI-7
aI-7
aa(lp143
I-2
aI0
aI-2
aI0
aI-1
aI0
aI-2
aI0
aI-2
aI0
aI-2
aI0
aa(lp144
I0
aI0
aI0
aI3
aI0
aI0
aI0
aI0
aI0
aI0
aI2
aI0
aI0
aI0
aa(lp145
I8
aI-3
aI-4
aI-1
aI-4
aI2
aI-3
aa(lp146
I0
aI4
aI0
aI3
aI0
aI5
aI0
aa(lp147
I0
aI-3
aI0
aI-4
aI0
aI-5
aI0
aa(lp148
I2
aI2
aI2
aI1
aI2
aI2
aI1
aa(lp149
I-8
aI-4
aI4
aI5
aI-9
aI-3
aI3
aI2
aI-9
aI-3
aI3
aa(lp150
I0
aI0
aI0
aI0
aa(lp151
I16
aI-17
aI15
aI-17
aI15
aa(lp152
I-4
aI-4
aI1
aa(lp153
I2
aI-2
aI0
aI0
aI4
aI-4
aI-1
aI1
aI-5
aa(lp154
I9
aI-7
aI8
aI-6
aI3
aa(lp155
I-1
aI1
aI7
aI-3
aI-4
aI4
aa(lp156
I-3
aI0
aI0
aI1
aI-3
aI0
aI0
aa(lp157
I-1
aI1
aI-5
aI12
aI-2
aa(lp158
I-2
aI5
aI-2
aI7
aI-1
aI4
aa(lp159
I2
aI2
aI-2
aI-2
aI-1
aI-2
aI-2
aI-2
aI-1
aI-2
aI-2
aI-1
aI1
aa(lp160
I-2
aI2
aI5
aI-3
aI-2
aI2
aI3
aa(lp161
I-4
aI7
aI-3
aI6
aI-3
aI9
aI-6
aI-9
aI-1
aI-2
aa(lp162
I4
aI-1
aI3
aI-9
aI-3
aI1
aa(lp163
I1
aI2
aI1
aI-10
aI2
aI-12
aI5
aa(lp164
I-1
aI1
aI1
aI-1
aa(lp165
I-5
aI-7
aI-5
aI12
aI-5
aI-7
aI-7
aa(lp166
I-7
aI-5
aI1
aI4
aI-4
aI-3
aa(lp167
I12
aI2
aI-12
aI5
aa(lp168
I2
aI-3
aI1
aI-12
aI2
aI-3
aI1
aI2
aI2
aI-12
aI5
aa(lp169
I-5
aI1
aI8
aI-2
aI-3
aI-1
aI1
aa(lp170
I-1
aI-2
aI-2
aI-5
aI-7
aa(lp171
I3
aI-3
aI-4
aI2
aI3
aI-3
aI-3
aa(lp172
I-1
aI1
aI1
aI-2
aI2
aI1
aI-1
aI1
aI2
aI-2
aI2
aa(lp173
I12
aI2
aI-5
aI1
aa(lp174
I1
aI1
aI1
aI2
aI1
aI-5
aI2
aI-4
aI-1
aI-2
aI-2
aI-1
aa(lp175
I-10
aI0
aI10
aa(lp176
I4
aI3
aI-2
aI-1
aI-2
aI-2
aI-1
aI-2
aI-2
aI2
aI2
aa(lp177
I-2
aI2
aI-2
aI-2
aI2
aI-2
aI-1
aI1
aI-1
aI-2
aI2
aa(lp178
I9
aI-2
aI-2
aI-5
aI10
aI-1
aI-2
aa(lp179
I-4
aI1
aI-4
aI-1
aI-2
aI-2
aI-1
aa(lp180
I5
aI-2
aI-2
aI-1
aa(lp181
I1
aI-1
aI0
aI1
aa(lp182
I-1
aI5
aI-7
aI0
aI-1
aI1
aI-1
aI0
aI2
aa(lp183
I3
aI-2
aI-1
aI8
aa(lp184
I-4
aI-3
aI-2
aI0
aI-1
aa(lp185
I-1
aI0
aI1
aI0
aI2
aI2
aI1
aI-3
aI-3
aI-2
aI0
aI-1
aI0
aI1
aa(lp186
I2
aI3
aI-12
aa(lp187
I-3
aI-3
aI-3
aI-3
aI-3
aI-3
aI-3
aI-3
aI-3
aI-3
aI-4
aa(lp188
I8
aI1
aI-4
aI-3
aI-3
aI-2
aI-1
aa(lp189
I1
aI2
aI-6
aI-1
aI-2
aI-2
aI-1
aa(lp190
I-5
aI3
aI-2
aI-6
aI3
aI-2
aI-1
aa(lp191
I-5
aI10
aa(lp192
I-2
aI-5
aI2
aa(lp193
I2
aI3
aI-1
aI3
aI-2
aa(lp194
I1
aI-5
aI-3
aI4
aI1
aI-4
aI-3
aa(lp195
I7
aI-9
aI-1
aI5
aI-7
aa(lp196
I1
aI2
aI2
aI-10
aI1
aI2
aI2
aa(lp197
I2
aI-7
aI10
aI-3
aI2
aI-4
aI12
aI-12
aa(lp198
I4
aI1
aI-7
aI2
aI-12
aI-7
aa(lp199
I-2
aI-3
aI1
aI1
aI-2
aI-3
aa(lp200
I4
aI-2
aI2
aI-4
aI4
aa(lp201
I3
aI-6
aI3
aI-7
aI4
aa(lp202
I3
aI-6
aI3
aI-7
aI7
aa(lp203
I4
aI-7
aI8
aI-6
aI3
aa(lp204
I3
aI-5
aI5
aI-7
aI7
aa(lp205
I12
aI-1
aI1
aI-7
aI7
aa(lp206
I1
aI-4
aI1
aI1
aI-4
aa(lp207
I7
aI2
aI-10
aI7
aI1
aI-7
aI2
aI-12
aI-7
aa(lp208
I4
aI-4
aI-3
aI1
aI1
aa(lp209
I2
aI2
aI1
aI2
aI2
aI2
aI1
aI2
aI2
aI1
aI2
aI2
aI2
aI1
aI2
aI2
aI1
aI2
aa(lp210
I-3
aI6
aI-3
aI-1
aI-2
aI-2
aa(lp211
I-8
aI3
aI-7
aI4
aI-9
aI5
aa(lp212
S' K1 A+'
p213
aS' K1 Bo'
p214
aS' K1 Co'
p215
aS' K1 Do'
p216
aS' K3 A+'
p217
aS' K3 Bo'
p218
aS' K3 Co'
p219
aS' K3 D+'
p220
aS' K3 Eo'
p221
aS' K8 Ao'
p222
aS' K8 Bo'
p223
aS' K8 Co'
p224
aS' K16 Ao'
p225
aS' K16 B+'
p226
aS' K16 Co'
p227
aS' K16 D+'
p228
aS' K16 Eo'
p229
aS' K16 F1'
p230
aS' K16 F2'
p231
aS' K31 A+'
p232
aS' K31 Bo'
p233
aS' K31 Co'
p234
aS' K33 Ao'
p235
aS' K33 B+'
p236
aS' K33 Co'
p237
aS' K33 Do'
p238
aS' K34 A+'
p239
aS' K34 B+'
p240
aS' K34 C+'
p241
aS' K34 C+'
p242
aS' K35 Ao'
p243
aS' K35 Bo'
p244
aS' K36 Ao'
p245
aS' K36 Bo'
p246
aS' K36 C+'
p247
aS' K37 Ao'
p248
aS' K37 B+'
p249
aS' K37 C+'
p250
aS' K37 Do'
p251
aS' K38 Ao'
p252
aS' K38 Bo'
p253
aS' K38 C+'
p254
aS' K38 Do'
p255
aS' K38 Eo'
p256
aS' K40 Ao'
p257
aS' K40 Bo'
p258
aS' K41 Ao'
p259
aS' K42 Ao'
p260
aS' K45 Ao'
p261
aS' K45 Bo'
p262
aS' K45 C+'
p263
aS' K45 D+'
p264
aS' K45 Eo'
p265
aS' K45 F+'
p266
aS' K54 A+'
p267
aS' K54 B1'
p268
aS' K54 B2'
p269
aS' K54 B3'
p270
aS' K54 B4'
p271
aS' K54 C+'
p272
aS' K54 Do'
p273
aS' K54 Eo'
p274
aS' K54 Fo'
p275
aS' K66 Ao'
p276
aS' K66 Bo'
p277
aS' K66 Co'
p278
aS' K66 D+'
p279
aS' K124 Ao'
p280
aS' K124 Bo'
p281
aS' K132 A1'
p282
aS' K132 A2'
p283
aS' K132 Bo'
p284
aS' K132 C+'
p285
aS' K132 D+'
p286
aS' K132 Eo'
p287
aS' K132 F+'
p288
aS' K132 Go'
p289
aS' K132 H1'
p290
aS' K132 H2'
p291
aS' K132 Io'
p292
aS' K132 Jo'
p293
aS' K132 Ko'
p294
aS' K135 Ao'
p295
aS' K135 Bo'
p296
aS' K135 Co'
p297
aS' K135 D+'
p298
aS' K135 Eo'
p299
aS' K135 F1'
p300
aS' K135 F2'
p301
aS' K135 F3'
p302
aS' K135 G1'
p303
aS' K135 G2'
p304
aS' K135 H1'
p305
aS' K135 H2'
p306
aS' K135 I1'
p307
aS' K135 I2'
p308
aS' K135 J+'
p309
aS' K135 K1'
p310
aS' K135 K2'
p311
aS' K135 L+'
p312
aS' K180 A+'
p313
aS' K180 Bo'
p314
aS' K180 Co'
p315
aS' K180 Do'
p316
aS' K180 Eo'
p317
aS' K180 F+'
p318
aS' K215 Ao'
p319
aS' K215 B+'
p320
aS' K215 Co'
p321
aS' K215 Do'
p322
aS' K247 A+'
p323
aS' K247 B1+'
p324
aS' K247 B2+'
p325
aS' K247 B3'
p326
aS' K247 C1'
p327
aS' K247 C2'
p328
aS' K247 Do'
p329
aS' K247 E1+'
p330
aS' K247 E2+'
p331
aS' K247 F+'
p332
aS' K260 Ao'
p333
aS' K260 Bo'
p334
aS' K260 C1'
p335
aS' K260 C2+'
p336
aS' K260 D+'
p337
aS' K260 Eo'
p338
aS' K260 F+'
p339
aS' K260 Go'
p340
aS' K260 H+'
p341
aS' K298 Ao'
p342
aS' K298 B+'
p343
aS' K298 Co'
p344
aS' K298 Do'
p345
aS' K298 E1'
p346
aS' K298 E2'
p347
aS' K298 F+'
p348
aS' K298 Go'
p349
aS' K298 H+'
p350
aS' K299 Ao'
p351
aS' K299 B+'
p352
aS' K366 Ao'
p353
aS' K366 Bo'
p354
aS' K366 Co'
p355
aS' K366 Do'
p356
aS' K428 Ao'
p357
aS' K428 Bo'
p358
aS' K458 Ao'
p359
aS' K458 Bo'
p360
aS' K458 Co'
p361
aS' K462 Ao'
p362
aS' K462 Bo'
p363
aS' K462 Co'
p364
aS' K463 A+'
p365
aS' K463 Bo'
p366
aS' K463 Co'
p367
aS' K463 Do'
p368
aS' K463 Eo'
p369
aS' K475 Ao'
p370
aS' K475 Bo'
p371
aS' K475 Co'
p372
aS' K475 Do'
p373
aS' K475 Eo'
p374
aS' K475 F+'
p375
aS' K475 Go'
p376
aS' K475 Ho'
p377
aS' K475 Io'
p378
aS' K475 Jo'
p379
aS' K481 A1'
p380
aS' K481 A2'
p381
aS' K481 Bo'
p382
aS' K481 Co'
p383
aS' K481 D1'
p384
aS' K481 D2'
p385
aS' K481 Eo'
p386
aS' K481 Fo'
p387
aS' K481 Go'
p388
aS' K481 Ho'
p389
aS' K481 Io'
p390
aS' K482 A1'
p391
aS' K482 A2'
p392
aS' K482 Bo'
p393
aS' K482 Co'
p394
aS' K482 Do'
p395
aS' K482 Eo'
p396
aS' K482 Fo'
p397
aS' K482 Go'
p398
aS' K482 Ho'
p399
aS' K483 A1'
p400
aS' K483 A2'
p401
aS' K483 A3'
p402
aS' K483 A4'
p403
aS' K483 A5'
p404
aS' K483 A6'
p405
aS' K483 B1'
p406
aS' K483 B2'
p407
aS' K483 Co'
p408
aS' K490 Ao'
p409
aS' K490 Bo'
p410
aS' K490 Co'
p411
a(lp412
(lp413
(lp414
S'sonata01-1.krn'
p415
aI0
aI16
aI107
aI375
aa(lp416
S'sonata01-2.krn'
p417
aI3
aI13
aI112
aI374
aa(lp418
S'sonata01-3.krn'
p419
aI2
aI21
aI189
aI724
aa(lp420
S'sonata01-4.krn'
p421
aI4
aI32
aI309
aI841
aa(lp422
S'sonata02-1.krn'
p423
aI0
aI83
aI788
aI2938
aa(lp424
S'sonata02-2.krn'
p425
aI1
aI16
aI60
aI173
aa(lp426
S'sonata02-3.krn'
p427
aI3
aI16
aI82
aI221
aa(lp428
S'sonata02-4.krn'
p429
aI12
aI209
aI825
aI2423
aa(lp430
S'sonata03-1.krn'
p431
aI0
aI65
aI345
aI1202
aa(lp432
S'sonata03-2.krn'
p433
aI2
aI3
aI45
aI169
aa(lp434
S'sonata03-3.krn'
p435
aI6
aI54
aI268
aI990
aa(lp436
S'sonata03-4.krn'
p437
aI13
aI128
aI464
aI1221
aa(lp438
S'sonata04-1.krn'
p439
aI1
aI8
aI171
aI706
aa(lp440
S'sonata04-2.krn'
p441
aI0
aI4
aI22
aI61
aa(lp442
S'sonata04-3.krn'
p443
aI2
aI5
aI33
aI100
aa(lp444
S'sonata04-4.krn'
p445
aI7
aI93
aI418
aI1335
aa(lp446
S'sonata05-1.krn'
p447
aI3
aI50
aI324
aI1199
aa(lp448
S'sonata05-2.krn'
p449
aI5
aI20
aI91
aI284
aa(lp450
S'sonata05-3.krn'
p451
aI0
aI23
aI198
aI761
aa(lp452
S'sonata06-1.krn'
p453
aI3
aI27
aI182
aI715
aa(lp454
S'sonata06-2.krn'
p455
aI0
aI23
aI206
aI745
aa(lp456
S'sonata06-3.krn'
p457
aI0
aI54
aI539
aI2057
aa(lp458
S'sonata07-1.krn'
p459
aI0
aI20
aI172
aI545
aa(lp460
S'sonata07-2.krn'
p461
aI1
aI3
aI23
aI103
aa(lp462
S'sonata07-3.krn'
p463
aI1
aI5
aI41
aI93
aa(lp464
S'sonata07-4.krn'
p465
aI0
aI53
aI258
aI913
aa(lp466
S'sonata08-1.krn'
p467
aI0
aI2
aI23
aI123
aa(lp468
S'sonata08-2.krn'
p469
aI3
aI15
aI74
aI242
aa(lp470
S'sonata08-3.krn'
p471
aI7
aI78
aI382
aI1206
aa(lp472
S'sonata09-1.krn'
p473
aI4
aI67
aI262
aI657
aa(lp474
S'sonata09-2.krn'
p475
aI0
aI5
aI52
aI190
aa(lp476
S'sonata09-3.krn'
p477
aI1
aI10
aI144
aI554
aa(lp478
S'sonata10-1.krn'
p479
aI1
aI38
aI393
aI1527
aa(lp480
S'sonata10-2.krn'
p481
aI0
aI13
aI93
aI384
aa(lp482
S'sonata10-3.krn'
p483
aI7
aI115
aI494
aI1529
aa(lp484
S'sonata11-1.krn'
p485
aI10
aI283
aI1284
aI4916
aa(lp486
S'sonata11-2.krn'
p487
aI9
aI36
aI133
aI380
aa(lp488
S'sonata11-3.krn'
p489
aI3
aI54
aI492
aI1750
aa(lp490
S'sonata11-4.krn'
p491
aI2
aI46
aI365
aI1297
aa(lp492
S'sonata12-1.krn'
p493
aI3
aI26
aI168
aI507
aa(lp494
S'sonata12-2.krn'
p495
aI0
aI16
aI105
aI517
aa(lp496
S'sonata12-3.krn'
p497
aI0
aI0
aI12
aI41
aa(lp498
S'sonata12-4.krn'
p499
aI3
aI50
aI202
aI704
aa(lp500
S'sonata13-1.krn'
p501
aI0
aI45
aI308
aI1201
aa(lp502
S'sonata13-2.krn'
p503
aI1
aI27
aI127
aI218
aa(lp504
S'sonata13-3.krn'
p505
aI0
aI0
aI0
aI0
aa(lp506
S'sonata13-4.krn'
p507
aI3
aI150
aI667
aI2254
aa(lp508
S'sonata14-1.krn'
p509
aI0
aI0
aI0
aI0
aa(lp510
S'sonata14-2.krn'
p511
aI0
aI1
aI11
aI41
aa(lp512
S'sonata14-3.krn'
p513
aI3
aI71
aI369
aI1736
aa(lp514
S'sonata15-1.krn'
p515
aI0
aI55
aI379
aI1203
aa(lp516
S'sonata15-2.krn'
p517
aI2
aI9
aI112
aI293
aa(lp518
S'sonata15-3.krn'
p519
aI0
aI2
aI7
aI26
aa(lp520
S'sonata15-4.krn'
p521
aI2
aI28
aI233
aI648
aa(lp522
S'sonata16-1.krn'
p523
aI22
aI93
aI890
aI3096
aa(lp524
S'sonata16-2.krn'
p525
aI6
aI47
aI390
aI1249
aa(lp526
S'sonata16-3.krn'
p527
aI7
aI87
aI513
aI1743
aa(lp528
S'sonata17-1.krn'
p529
aI6
aI113
aI555
aI1799
aa(lp530
S'sonata17-2.krn'
p531
aI7
aI29
aI115
aI273
aa(lp532
S'sonata17-3.krn'
p533
aI13
aI72
aI314
aI963
aa(lp534
S'sonata18-1.krn'
p535
aI20
aI53
aI266
aI771
aa(lp536
S'sonata18-2.krn'
p537
aI0
aI85
aI622
aI1870
aa(lp538
S'sonata18-3.krn'
p539
aI0
aI2
aI47
aI152
aa(lp540
S'sonata18-4.krn'
p541
aI3
aI66
aI557
aI1598
aa(lp542
S'sonata19-1.krn'
p543
aI1
aI36
aI168
aI680
aa(lp544
S'sonata19-2.krn'
p545
aI4
aI26
aI218
aI856
aa(lp546
S'sonata20-1.krn'
p547
aI10
aI60
aI333
aI1171
aa(lp548
S'sonata20-2.krn'
p549
aI0
aI12
aI70
aI288
aa(lp550
S'sonata21-1.krn'
p551
aI9
aI143
aI546
aI2254
aa(lp552
S'sonata21-2.krn'
p553
aI1
aI1
aI23
aI63
aa(lp554
S'sonata21-3.krn'
p555
aI16
aI366
aI2003
aI7285
aa(lp556
S'sonata22-1.krn'
p557
aI8
aI70
aI259
aI834
aa(lp558
S'sonata22-2.krn'
p559
aI1
aI86
aI502
aI1599
aa(lp560
S'sonata23-1.krn'
p561
aI7
aI117
aI606
aI1712
aa(lp562
S'sonata23-2.krn'
p563
aI4
aI31
aI261
aI921
aa(lp564
S'sonata23-3.krn'
p565
aI7
aI164
aI1309
aI4794
aa(lp566
S'sonata24-1.krn'
p567
aI5
aI72
aI517
aI1851
aa(lp568
S'sonata24-2.krn'
p569
aI8
aI66
aI373
aI1250
aa(lp570
S'sonata25-1.krn'
p571
aI1
aI34
aI315
aI1151
aa(lp572
S'sonata25-2.krn'
p573
aI0
aI7
aI79
aI336
aa(lp574
S'sonata25-3.krn'
p575
aI2
aI16
aI233
aI903
aa(lp576
S'sonata26-1.krn'
p577
aI3
aI75
aI442
aI1415
aa(lp578
S'sonata26-2.krn'
p579
aI0
aI4
aI21
aI122
aa(lp580
S'sonata26-3.krn'
p581
aI8
aI35
aI293
aI966
aa(lp582
S'sonata27-1.krn'
p583
aI0
aI4
aI65
aI243
aa(lp584
S'sonata27-2.krn'
p585
aI9
aI93
aI636
aI2074
aa(lp586
S'sonata28-1.krn'
p587
aI0
aI0
aI12
aI31
aa(lp588
S'sonata28-2.krn'
p589
aI1
aI41
aI210
aI659
aa(lp590
S'sonata28-3.krn'
p591
aI1
aI6
aI17
aI39
aa(lp592
S'sonata28-4.krn'
p593
aI5
aI151
aI913
aI3286
aa(lp594
S'sonata29-1.krn'
p595
aI11
aI118
aI686
aI2193
aa(lp596
S'sonata29-2.krn'
p597
aI0
aI3
aI37
aI139
aa(lp598
S'sonata29-3.krn'
p599
aI1
aI17
aI108
aI255
aa(lp600
S'sonata29-4.krn'
p601
aI11
aI202
aI2320
aI8618
aa(lp602
S'sonata30-1.krn'
p603
aI7
aI28
aI158
aI378
aa(lp604
S'sonata30-2.krn'
p605
aI1
aI6
aI44
aI139
aa(lp606
S'sonata30-3.krn'
p607
aI3
aI84
aI810
aI3010
aa(lp608
S'sonata31-1.krn'
p609
aI0
aI27
aI265
aI931
aa(lp610
S'sonata31-2.krn'
p611
aI2
aI4
aI18
aI28
aa(lp612
S'sonata31-3.krn'
p613
aI10
aI66
aI607
aI2207
aa(lp614
S'sonata32-1.krn'
p615
aI11
aI300
aI1809
aI6638
aa(lp616
S'sonata32-2.krn'
p617
aI12
aI136
aI893
aI3285
aaa(lp618
(lp619
S'sonata01-1.krn'
p620
aI9
aI55
aI214
aI748
aa(lp621
S'sonata01-2.krn'
p622
aI0
aI10
aI112
aI355
aa(lp623
S'sonata01-3.krn'
p624
aI4
aI31
aI174
aI649
aa(lp625
S'sonata02-1.krn'
p626
aI10
aI57
aI231
aI674
aa(lp627
S'sonata02-2.krn'
p628
aI2
aI15
aI133
aI482
aa(lp629
S'sonata02-3.krn'
p630
aI0
aI5
aI72
aI317
aa(lp631
S'sonata03-1.krn'
p632
aI22
aI62
aI337
aI1236
aa(lp633
S'sonata03-2.krn'
p634
aI3
aI28
aI155
aI616
aa(lp635
S'sonata03-3.krn'
p636
aI6
aI38
aI299
aI1183
aa(lp637
S'sonata04-1.krn'
p638
aI0
aI15
aI74
aI245
aa(lp639
S'sonata04-2.krn'
p640
aI0
aI12
aI56
aI157
aa(lp641
S'sonata04-3.krn'
p642
aI3
aI17
aI107
aI322
aa(lp643
S'sonata05-1.krn'
p644
aI13
aI37
aI214
aI747
aa(lp645
S'sonata05-2.krn'
p646
aI0
aI21
aI165
aI737
aa(lp647
S'sonata05-3.krn'
p648
aI8
aI57
aI186
aI467
aa(lp649
S'sonata06-1.krn'
p650
aI4
aI30
aI203
aI769
aa(lp651
S'sonata06-2.krn'
p652
aI4
aI32
aI207
aI776
aa(lp653
S'sonata06-3a.krn'
p654
aI0
aI0
aI27
aI85
aa(lp655
S'sonata06-3b.krn'
p656
aI0
aI0
aI18
aI50
aa(lp657
S'sonata06-3c.krn'
p658
aI0
aI2
aI126
aI535
aa(lp659
S'sonata06-3d.krn'
p660
aI0
aI0
aI0
aI1
aa(lp661
S'sonata06-3e.krn'
p662
aI0
aI27
aI180
aI491
aa(lp663
S'sonata06-3f.krn'
p664
aI0
aI0
aI0
aI2
aa(lp665
S'sonata06-3g.krn'
p666
aI0
aI0
aI0
aI0
aa(lp667
S'sonata06-3h.krn'
p668
aI0
aI0
aI2
aI5
aa(lp669
S'sonata06-3i.krn'
p670
aI0
aI0
aI0
aI0
aa(lp671
S'sonata06-3j.krn'
p672
aI0
aI1
aI4
aI27
aa(lp673
S'sonata06-3k.krn'
p674
aI0
aI0
aI1
aI2
aa(lp675
S'sonata06-3l.krn'
p676
aI1
aI6
aI119
aI464
aa(lp677
S'sonata06-3m.krn'
p678
aI1
aI10
aI53
aI126
aa(lp679
S'sonata07-1.krn'
p680
aI7
aI73
aI338
aI1180
aa(lp681
S'sonata07-2.krn'
p682
aI4
aI29
aI167
aI546
aa(lp683
S'sonata07-3.krn'
p684
aI5
aI15
aI301
aI1135
aa(lp685
S'sonata08-1.krn'
p686
aI9
aI163
aI1160
aI3336
aa(lp687
S'sonata08-2.krn'
p688
aI7
aI76
aI335
aI882
aa(lp689
S'sonata08-3.krn'
p690
aI2
aI20
aI127
aI435
aa(lp691
S'sonata09-1.krn'
p692
aI3
aI72
aI350
aI1435
aa(lp693
S'sonata09-2.krn'
p694
aI0
aI9
aI65
aI179
aa(lp695
S'sonata09-3.krn'
p696
aI1
aI71
aI445
aI1530
aa(lp697
S'sonata10-1.krn'
p698
aI2
aI31
aI332
aI1500
aa(lp699
S'sonata10-2.krn'
p700
aI0
aI2
aI12
aI27
aa(lp701
S'sonata10-3.krn'
p702
aI2
aI39
aI223
aI776
aa(lp703
S'sonata11-1a.krn'
p704
aI0
aI0
aI2
aI7
aa(lp705
S'sonata11-1b.krn'
p706
aI0
aI0
aI0
aI0
aa(lp707
S'sonata11-1c.krn'
p708
aI0
aI7
aI28
aI206
aa(lp709
S'sonata11-1d.krn'
p710
aI1
aI3
aI29
aI110
aa(lp711
S'sonata11-1e.krn'
p712
aI0
aI0
aI5
aI24
aa(lp713
S'sonata11-1f.krn'
p714
aI0
aI0
aI25
aI118
aa(lp715
S'sonata11-1g.krn'
p716
aI0
aI5
aI32
aI126
aa(lp717
S'sonata11-2.krn'
p718
aI3
aI12
aI87
aI307
aa(lp719
S'sonata11-3.krn'
p720
aI2
aI7
aI76
aI269
aa(lp721
S'sonata12-1.krn'
p722
aI0
aI54
aI303
aI1093
aa(lp723
S'sonata12-2.krn'
p724
aI2
aI7
aI57
aI201
aa(lp725
S'sonata12-3.krn'
p726
aI8
aI123
aI631
aI2059
aa(lp727
S'sonata13-1.krn'
p728
aI16
aI93
aI500
aI1572
aa(lp729
S'sonata13-2.krn'
p730
aI2
aI69
aI400
aI1186
aa(lp731
S'sonata13-3.krn'
p732
aI2
aI76
aI310
aI1038
aa(lp733
S'sonata14-1.krn'
p734
aI2
aI48
aI224
aI952
aa(lp735
S'sonata14-2.krn'
p736
aI0
aI19
aI159
aI578
aa(lp737
S'sonata14-3.krn'
p738
aI0
aI26
aI221
aI687
aa(lp739
S'sonata15-1.krn'
p740
aI0
aI107
aI543
aI1971
aa(lp741
S'sonata15-2.krn'
p742
aI0
aI31
aI119
aI689
aa(lp743
S'sonata15-3.krn'
p744
aI0
aI4
aI71
aI220
aa(lp745
S'sonata16-1.krn'
p746
aI5
aI59
aI274
aI912
aa(lp747
S'sonata16-2.krn'
p748
aI1
aI26
aI90
aI316
aa(lp749
S'sonata16-3.krn'
p750
aI1
aI24
aI206
aI643
aa(lp751
S'sonata17-1.krn'
p752
aI4
aI42
aI345
aI1380
aa(lp753
S'sonata17-2.krn'
p754
aI0
aI13
aI77
aI233
aa(lp755
S'sonata17-3.krn'
p756
aI18
aI145
aI844
aI2578
aaatp757
.