(lp0
(dp1
S'10/4'
p2
I1
sS'7/4'
p3
I3
sS'9/16'
p4
I191
sS'5/4'
p5
I2
sS'2/4'
p6
I5109
sS'12/16'
p7
I209
sS'4/4'
p8
I2849
sS'6/4'
p9
I3
sS'3/4'
p10
I4189
sS'9/8'
p11
I255
sS'12/8'
p12
I264
sS'3/8'
p13
I880
sS'2/2'
p14
I1976
sS'17/16'
p15
I1
sS'6/8'
p16
I1907
sa(dp17
S'2/4'
p18
I1696
sS'4/4'
p19
I1683
sS'16/4'
p20
I1
sS'3/4'
p21
I1872
sS'3/8'
p22
I575
sS'2/2'
p23
I353
sS'6/8'
p24
I848
sa(dp25
S'2/4'
p26
I266
sS'4/4'
p27
I444
sS'3/4'
p28
I1023
sS'12/8'
p29
I136
sS'3/8'
p30
I2472
sS'2/2'
p31
I1126
sS'6/8'
p32
I357
sa.